; ModuleID = '56/1098.c'
source_filename = "56/1098.c"
target datalayout = "e-m:e-p270:32:32-p271:32:32-p272:64:64-i64:64-f80:128-n8:16:32:64-S128"
target triple = "x86_64-pc-linux-gnu"

@.str = private unnamed_addr constant [3 x i8] c"%d\00", align 1

; Function Attrs: noinline nounwind uwtable
define dso_local i32 @main() #0 {
  %1 = alloca i32, align 4
  %2 = alloca i32, align 4
  %3 = alloca i32, align 4
  %4 = alloca i32, align 4
  %5 = alloca i32, align 4
  %6 = alloca i32, align 4
  %7 = alloca i32, align 4
  %8 = alloca i32, align 4
  store i32 0, i32* %1, align 4
  %9 = call i32 (i8*, ...) @__isoc99_scanf(i8* getelementptr inbounds ([3 x i8], [3 x i8]* @.str, i64 0, i64 0), i32* %2)
  %10 = load i32, i32* %2, align 4
  %11 = sdiv i32 %10, 10000
  store i32 %11, i32* %3, align 4
  %12 = load i32, i32* %2, align 4
  %13 = sdiv i32 %12, 1000
  %14 = load i32, i32* %3, align 4
  %15 = mul nsw i32 %14, 10
  %16 = sub nsw i32 %13, %15
  store i32 %16, i32* %4, align 4
  %17 = load i32, i32* %2, align 4
  %18 = sdiv i32 %17, 100
  %19 = load i32, i32* %3, align 4
  %20 = mul nsw i32 %19, 100
  %21 = sub nsw i32 %18, %20
  %22 = load i32, i32* %4, align 4
  %23 = mul nsw i32 %22, 10
  %24 = sub nsw i32 %21, %23
  store i32 %24, i32* %5, align 4
  %25 = load i32, i32* %2, align 4
  %26 = sdiv i32 %25, 10
  %27 = load i32, i32* %3, align 4
  %28 = mul nsw i32 %27, 1000
  %29 = sub nsw i32 %26, %28
  %30 = load i32, i32* %4, align 4
  %31 = mul nsw i32 %30, 100
  %32 = sub nsw i32 %29, %31
  %33 = load i32, i32* %5, align 4
  %34 = mul nsw i32 %33, 10
  %35 = sub nsw i32 %32, %34
  store i32 %35, i32* %6, align 4
  %36 = load i32, i32* %2, align 4
  %37 = load i32, i32* %3, align 4
  %38 = mul nsw i32 %37, 10000
  %39 = sub nsw i32 %36, %38
  %40 = load i32, i32* %4, align 4
  %41 = mul nsw i32 %40, 1000
  %42 = sub nsw i32 %39, %41
  %43 = load i32, i32* %5, align 4
  %44 = mul nsw i32 %43, 100
  %45 = sub nsw i32 %42, %44
  %46 = load i32, i32* %6, align 4
  %47 = mul nsw i32 %46, 10
  %48 = sub nsw i32 %45, %47
  store i32 %48, i32* %7, align 4
  %49 = load i32, i32* %7, align 4
  %50 = mul nsw i32 %49, 10000
  %51 = load i32, i32* %6, align 4
  %52 = mul nsw i32 %51, 1000
  %53 = add nsw i32 %50, %52
  %54 = load i32, i32* %5, align 4
  %55 = mul nsw i32 %54, 100
  %56 = add nsw i32 %53, %55
  %57 = load i32, i32* %4, align 4
  %58 = mul nsw i32 %57, 10
  %59 = add nsw i32 %56, %58
  %60 = load i32, i32* %3, align 4
  %61 = add nsw i32 %59, %60
  store i32 %61, i32* %8, align 4
  %62 = load i32, i32* %2, align 4
  %63 = sdiv i32 %62, 10
  %64 = icmp eq i32 %63, 0
  br i1 %64, label %65, label %69

65:                                               ; preds = %0
  %66 = load i32, i32* %8, align 4
  %67 = sdiv i32 %66, 10000
  %68 = call i32 (i8*, ...) @printf(i8* getelementptr inbounds ([3 x i8], [3 x i8]* @.str, i64 0, i64 0), i32 %67)
  br label %99

69:                                               ; preds = %0
  %70 = load i32, i32* %2, align 4
  %71 = sdiv i32 %70, 100
  %72 = icmp eq i32 %71, 0
  br i1 %72, label %73, label %77

73:                                               ; preds = %69
  %74 = load i32, i32* %8, align 4
  %75 = sdiv i32 %74, 1000
  %76 = call i32 (i8*, ...) @printf(i8* getelementptr inbounds ([3 x i8], [3 x i8]* @.str, i64 0, i64 0), i32 %75)
  br label %98

77:                                               ; preds = %69
  %78 = load i32, i32* %2, align 4
  %79 = sdiv i32 %78, 1000
  %80 = icmp eq i32 %79, 0
  br i1 %80, label %81, label %85

81:                                               ; preds = %77
  %82 = load i32, i32* %8, align 4
  %83 = sdiv i32 %82, 100
  %84 = call i32 (i8*, ...) @printf(i8* getelementptr inbounds ([3 x i8], [3 x i8]* @.str, i64 0, i64 0), i32 %83)
  br label %97

85:                                               ; preds = %77
  %86 = load i32, i32* %2, align 4
  %87 = sdiv i32 %86, 10000
  %88 = icmp eq i32 %87, 0
  br i1 %88, label %89, label %93

89:                                               ; preds = %85
  %90 = load i32, i32* %8, align 4
  %91 = sdiv i32 %90, 10
  %92 = call i32 (i8*, ...) @printf(i8* getelementptr inbounds ([3 x i8], [3 x i8]* @.str, i64 0, i64 0), i32 %91)
  br label %96

93:                                               ; preds = %85
  %94 = load i32, i32* %8, align 4
  %95 = call i32 (i8*, ...) @printf(i8* getelementptr inbounds ([3 x i8], [3 x i8]* @.str, i64 0, i64 0), i32 %94)
  br label %96

96:                                               ; preds = %93, %89
  br label %97

97:                                               ; preds = %96, %81
  br label %98

98:                                               ; preds = %97, %73
  br label %99

99:                                               ; preds = %98, %65
  ret i32 0
}

declare dso_local i32 @__isoc99_scanf(i8*, ...) #1

declare dso_local i32 @printf(i8*, ...) #1


!llvm.module.flags = !{!0}
!llvm.ident = !{!1}

!0 = !{i32 1, !"wchar_size", i32 4}
!1 = !{!"clang version 10.0.0-4ubuntu1 "}
